target datalayout = "e-m:e-p270:32:32-p271:32:32-p272:64:64-i64:64-i128:128-f80:128-n8:16:32:64-S128"
target triple = "x86_64-pc-linux-gnu"

%"struct.vcpkg::StringView" = type { ptr, i64 }
%"struct.vcpkg::Unicode::Utf8Decoder" = type { i32, ptr, ptr, ptr }
%"struct.vcpkg::LocalizedString" = type { %"class.std::__cxx11::basic_string" }
%"class.std::__cxx11::basic_string" = type { %"struct.std::__cxx11::basic_string<char>::_Alloc_hider", i64, %union.anon }
%"struct.std::__cxx11::basic_string<char>::_Alloc_hider" = type { ptr }
%union.anon = type { i64, [8 x i8] }
%"struct.vcpkg::ParseMessages" = type { %"struct.vcpkg::Optional", %"class.std::vector" }
%"struct.vcpkg::Optional" = type { %"struct.vcpkg::details::OptionalStorage" }
%"struct.vcpkg::details::OptionalStorage" = type { %"struct.vcpkg::details::OptionalStorageDtor" }
%"struct.vcpkg::details::OptionalStorageDtor" = type { i8, %union.anon.1 }
%union.anon.1 = type { %"struct.vcpkg::LocalizedString" }
%"class.std::vector" = type { %"struct.std::_Vector_base" }
%"struct.std::_Vector_base" = type { %"struct.std::_Vector_base<vcpkg::ParseMessage, std::allocator<vcpkg::ParseMessage>>::_Vector_impl" }
%"struct.std::_Vector_base<vcpkg::ParseMessage, std::allocator<vcpkg::ParseMessage>>::_Vector_impl" = type { %"struct.std::_Vector_base<vcpkg::ParseMessage, std::allocator<vcpkg::ParseMessage>>::_Vector_impl_data" }
%"struct.std::_Vector_base<vcpkg::ParseMessage, std::allocator<vcpkg::ParseMessage>>::_Vector_impl_data" = type { ptr, ptr, ptr }
%"struct.vcpkg::TextRowCol" = type { i32, i32 }
%"struct.vcpkg::ParserBase" = type { %"struct.vcpkg::Unicode::Utf8Decoder", %"struct.vcpkg::Unicode::Utf8Decoder", i32, i32, %"struct.vcpkg::StringView", %"struct.vcpkg::Optional.5", %"struct.vcpkg::ParseMessages" }
%"struct.vcpkg::Optional.5" = type { %"struct.vcpkg::details::OptionalStorage.6" }
%"struct.vcpkg::details::OptionalStorage.6" = type { %"struct.vcpkg::details::OptionalStorageDtor.7" }
%"struct.vcpkg::details::OptionalStorageDtor.7" = type { i8, %union.anon.8 }
%union.anon.8 = type { %"struct.vcpkg::StringView" }

; Function Attrs: mustprogress nounwind uwtable
define linkonce_odr dso_local void @_ZNSt15__new_allocatorIN5vcpkg12ParseMessageEEC2Ev(ptr noundef nonnull align 1 dereferenceable(1) %0) unnamed_addr #2 comdat align 2 {
  %2 = alloca ptr, align 8
  store ptr %0, ptr %2, align 8, !tbaa !137
  ret void
}

; Function Attrs: mustprogress nounwind uwtable
define linkonce_odr dso_local void @_ZNSt12_Vector_baseIN5vcpkg12ParseMessageESaIS1_EE17_Vector_impl_dataC2Ev(ptr noundef nonnull align 8 dereferenceable(24) %0) unnamed_addr #2 comdat align 2 {
  %2 = alloca ptr, align 8
  store ptr %0, ptr %2, align 8, !tbaa !132
  %3 = load ptr, ptr %2, align 8
  %4 = getelementptr inbounds nuw %"struct.std::_Vector_base<vcpkg::ParseMessage, std::allocator<vcpkg::ParseMessage>>::_Vector_impl_data", ptr %3, i32 0, i32 0
  store ptr null, ptr %4, align 8, !tbaa !134
  %5 = getelementptr inbounds nuw %"struct.std::_Vector_base<vcpkg::ParseMessage, std::allocator<vcpkg::ParseMessage>>::_Vector_impl_data", ptr %3, i32 0, i32 1
  store ptr null, ptr %5, align 8, !tbaa !135
  %6 = getelementptr inbounds nuw %"struct.std::_Vector_base<vcpkg::ParseMessage, std::allocator<vcpkg::ParseMessage>>::_Vector_impl_data", ptr %3, i32 0, i32 2
  store ptr null, ptr %6, align 8, !tbaa !136
  ret void
}

; Function Attrs: mustprogress nounwind uwtable
define linkonce_odr dso_local void @_ZNSaIN5vcpkg12ParseMessageEEC2Ev(ptr noundef nonnull align 1 dereferenceable(1) %0) unnamed_addr #2 comdat align 2 {
  %2 = alloca ptr, align 8
  store ptr %0, ptr %2, align 8, !tbaa !130
  %3 = load ptr, ptr %2, align 8
  call void @_ZNSt15__new_allocatorIN5vcpkg12ParseMessageEEC2Ev(ptr noundef nonnull align 1 dereferenceable(1) %3) #19
  ret void
}

; Function Attrs: mustprogress nounwind uwtable
define linkonce_odr dso_local void @_ZNSt12_Vector_baseIN5vcpkg12ParseMessageESaIS1_EE12_Vector_implC2Ev(ptr noundef nonnull align 8 dereferenceable(24) %0) unnamed_addr #2 comdat align 2 {
  %2 = alloca ptr, align 8
  store ptr %0, ptr %2, align 8, !tbaa !128
  %3 = load ptr, ptr %2, align 8
  call void @_ZNSaIN5vcpkg12ParseMessageEEC2Ev(ptr noundef nonnull align 1 dereferenceable(1) %3) #19
  call void @_ZNSt12_Vector_baseIN5vcpkg12ParseMessageESaIS1_EE17_Vector_impl_dataC2Ev(ptr noundef nonnull align 8 dereferenceable(24) %3) #19
  ret void
}

; Function Attrs: mustprogress nounwind uwtable
define linkonce_odr dso_local void @_ZN5vcpkg7details19OptionalStorageDtorINS_15LocalizedStringELb0EEC2Ev(ptr noundef nonnull align 8 dereferenceable(40) %0) unnamed_addr #2 comdat align 2 {
  %2 = alloca ptr, align 8
  store ptr %0, ptr %2, align 8, !tbaa !124
  %3 = load ptr, ptr %2, align 8
  %4 = getelementptr inbounds nuw %"struct.vcpkg::details::OptionalStorageDtor", ptr %3, i32 0, i32 0
  store i8 0, ptr %4, align 8, !tbaa !70
  %5 = getelementptr inbounds nuw %"struct.vcpkg::details::OptionalStorageDtor", ptr %3, i32 0, i32 1
  store i8 0, ptr %5, align 8, !tbaa !38
  ret void
}

; Function Attrs: mustprogress nounwind uwtable
define linkonce_odr dso_local void @_ZNSt12_Vector_baseIN5vcpkg12ParseMessageESaIS1_EEC2Ev(ptr noundef nonnull align 8 dereferenceable(24) %0) unnamed_addr #2 comdat align 2 {
  %2 = alloca ptr, align 8
  store ptr %0, ptr %2, align 8, !tbaa !126
  %3 = load ptr, ptr %2, align 8
  %4 = getelementptr inbounds nuw %"struct.std::_Vector_base", ptr %3, i32 0, i32 0
  call void @_ZNSt12_Vector_baseIN5vcpkg12ParseMessageESaIS1_EE12_Vector_implC2Ev(ptr noundef nonnull align 8 dereferenceable(24) %4) #19
  ret void
}

; Function Attrs: mustprogress uwtable
define linkonce_odr dso_local void @_ZN5vcpkg7details15OptionalStorageINS_15LocalizedStringELb1EEC2Ev(ptr noundef nonnull align 8 dereferenceable(40) %0) unnamed_addr #0 comdat align 2 {
  %2 = alloca ptr, align 8
  store ptr %0, ptr %2, align 8, !tbaa !68
  %3 = load ptr, ptr %2, align 8
  call void @_ZN5vcpkg7details19OptionalStorageDtorINS_15LocalizedStringELb0EEC2Ev(ptr noundef nonnull align 8 dereferenceable(40) %3)
  ret void
}

; Function Attrs: noinline noreturn nounwind uwtable
define linkonce_odr hidden void @__clang_call_terminate(ptr noundef %0) #11 comdat {
  %2 = call ptr @__cxa_begin_catch(ptr %0) #19
  call void @_ZSt9terminatev() #21
  unreachable
}

; Function Attrs: mustprogress nounwind uwtable
define linkonce_odr dso_local void @_ZN5vcpkg7details19OptionalStorageDtorINS_10StringViewELb1EEC2Ev(ptr noundef nonnull align 8 dereferenceable(24) %0) unnamed_addr #2 comdat align 2 {
  %2 = alloca ptr, align 8
  store ptr %0, ptr %2, align 8, !tbaa !122
  %3 = load ptr, ptr %2, align 8
  %4 = getelementptr inbounds nuw %"struct.vcpkg::details::OptionalStorageDtor.7", ptr %3, i32 0, i32 0
  store i8 0, ptr %4, align 8, !tbaa !114
  %5 = getelementptr inbounds nuw %"struct.vcpkg::details::OptionalStorageDtor.7", ptr %3, i32 0, i32 1
  store i8 0, ptr %5, align 8, !tbaa !38
  ret void
}

; Function Attrs: mustprogress nounwind uwtable
define linkonce_odr dso_local void @_ZNSt6vectorIN5vcpkg12ParseMessageESaIS1_EEC2Ev(ptr noundef nonnull align 8 dereferenceable(24) %0) unnamed_addr #2 comdat align 2 {
  %2 = alloca ptr, align 8
  store ptr %0, ptr %2, align 8, !tbaa !62
  %3 = load ptr, ptr %2, align 8
  call void @_ZNSt12_Vector_baseIN5vcpkg12ParseMessageESaIS1_EEC2Ev(ptr noundef nonnull align 8 dereferenceable(24) %3) #19
  ret void
}

; Function Attrs: mustprogress nounwind uwtable
define linkonce_odr dso_local void @_ZN5vcpkg8OptionalINS_15LocalizedStringEEC2Ev(ptr noundef nonnull align 8 dereferenceable(40) %0) unnamed_addr #2 comdat align 2 personality ptr @__gxx_personality_v0 {
  %2 = alloca ptr, align 8
  store ptr %0, ptr %2, align 8, !tbaa !110
  %3 = load ptr, ptr %2, align 8
  invoke void @_ZN5vcpkg7details15OptionalStorageINS_15LocalizedStringELb1EEC2Ev(ptr noundef nonnull align 8 dereferenceable(40) %3)
          to label %4 unwind label %5

4:                                                ; preds = %1
  ret void

5:                                                ; preds = %1
  %6 = landingpad { ptr, i32 }
          catch ptr null
  %7 = extractvalue { ptr, i32 } %6, 0
  call void @__clang_call_terminate(ptr %7) #21
  unreachable
}

; Function Attrs: mustprogress nounwind uwtable
define linkonce_odr dso_local void @_ZN5vcpkg7details15OptionalStorageINS_10StringViewELb1EEC2ERKS3_(ptr noundef nonnull align 8 dereferenceable(24) %0, ptr noundef nonnull align 8 dereferenceable(24) %1) unnamed_addr #2 comdat align 2 personality ptr @__gxx_personality_v0 {
  %3 = alloca ptr, align 8
  %4 = alloca ptr, align 8
  store ptr %0, ptr %3, align 8, !tbaa !112
  store ptr %1, ptr %4, align 8, !tbaa !112
  %5 = load ptr, ptr %3, align 8
  invoke void @_ZN5vcpkg7details19OptionalStorageDtorINS_10StringViewELb1EEC2Ev(ptr noundef nonnull align 8 dereferenceable(24) %5)
          to label %6 unwind label %17

6:                                                ; preds = %2
  %7 = load ptr, ptr %4, align 8, !tbaa !112
  %8 = getelementptr inbounds nuw %"struct.vcpkg::details::OptionalStorageDtor.7", ptr %7, i32 0, i32 0
  %9 = load i8, ptr %8, align 8, !tbaa !114, !range !73, !noundef !74
  %10 = trunc i8 %9 to i1
  br i1 %10, label %11, label %16

11:                                               ; preds = %6
  %12 = getelementptr inbounds nuw %"struct.vcpkg::details::OptionalStorageDtor.7", ptr %5, i32 0, i32 0
  store i8 1, ptr %12, align 8, !tbaa !114
  %13 = getelementptr inbounds nuw %"struct.vcpkg::details::OptionalStorageDtor.7", ptr %5, i32 0, i32 1
  %14 = load ptr, ptr %4, align 8, !tbaa !112
  %15 = getelementptr inbounds nuw %"struct.vcpkg::details::OptionalStorageDtor.7", ptr %14, i32 0, i32 1
  call void @llvm.memcpy.p0.p0.i64(ptr align 8 %13, ptr align 8 %15, i64 16, i1 false), !tbaa.struct !16
  br label %16

16:                                               ; preds = %11, %6
  ret void

17:                                               ; preds = %2
  %18 = landingpad { ptr, i32 }
          catch ptr null
  %19 = extractvalue { ptr, i32 } %18, 0
  call void @__clang_call_terminate(ptr %19) #21
  unreachable
}

; Function Attrs: inlinehint mustprogress nounwind uwtable
define linkonce_odr dso_local void @_ZN5vcpkg13ParseMessagesC2Ev(ptr noundef nonnull align 8 dereferenceable(64) %0) unnamed_addr #6 comdat align 2 {
  %2 = alloca ptr, align 8
  store ptr %0, ptr %2, align 8, !tbaa !60
  %3 = load ptr, ptr %2, align 8
  %4 = getelementptr inbounds nuw %"struct.vcpkg::ParseMessages", ptr %3, i32 0, i32 0
  call void @_ZN5vcpkg8OptionalINS_15LocalizedStringEEC2Ev(ptr noundef nonnull align 8 dereferenceable(40) %4) #19
  %5 = getelementptr inbounds nuw %"struct.vcpkg::ParseMessages", ptr %3, i32 0, i32 1
  call void @_ZNSt6vectorIN5vcpkg12ParseMessageESaIS1_EEC2Ev(ptr noundef nonnull align 8 dereferenceable(24) %5) #19
  ret void
}

; Function Attrs: inlinehint mustprogress nounwind uwtable
define linkonce_odr dso_local void @_ZN5vcpkg8OptionalINS_10StringViewEEC2ERKS2_(ptr noundef nonnull align 8 dereferenceable(24) %0, ptr noundef nonnull align 8 dereferenceable(24) %1) unnamed_addr #6 comdat align 2 {
  %3 = alloca ptr, align 8
  %4 = alloca ptr, align 8
  store ptr %0, ptr %3, align 8, !tbaa !79
  store ptr %1, ptr %4, align 8, !tbaa !79
  %5 = load ptr, ptr %3, align 8
  %6 = load ptr, ptr %4, align 8, !tbaa !79
  call void @_ZN5vcpkg7details15OptionalStorageINS_10StringViewELb1EEC2ERKS3_(ptr noundef nonnull align 8 dereferenceable(24) %5, ptr noundef nonnull align 8 dereferenceable(24) %6) #19
  ret void
}

; Function Attrs: mustprogress nounwind uwtable
define linkonce_odr dso_local void @_ZN5vcpkg7Unicode11Utf8DecoderC2EPKcS3_(ptr noundef nonnull align 8 dereferenceable(32) %0, ptr noundef %1, ptr noundef %2) unnamed_addr #2 comdat align 2 {
  %4 = alloca ptr, align 8
  %5 = alloca ptr, align 8
  %6 = alloca ptr, align 8
  store ptr %0, ptr %4, align 8, !tbaa !9
  store ptr %1, ptr %5, align 8, !tbaa !17
  store ptr %2, ptr %6, align 8, !tbaa !17
  %7 = load ptr, ptr %4, align 8
  %8 = getelementptr inbounds nuw %"struct.vcpkg::Unicode::Utf8Decoder", ptr %7, i32 0, i32 0
  store i32 0, ptr %8, align 8, !tbaa !35
  %9 = getelementptr inbounds nuw %"struct.vcpkg::Unicode::Utf8Decoder", ptr %7, i32 0, i32 1
  %10 = load ptr, ptr %5, align 8, !tbaa !17
  store ptr %10, ptr %9, align 8, !tbaa !24
  %11 = getelementptr inbounds nuw %"struct.vcpkg::Unicode::Utf8Decoder", ptr %7, i32 0, i32 2
  %12 = load ptr, ptr %5, align 8, !tbaa !17
  store ptr %12, ptr %11, align 8, !tbaa !97
  %13 = getelementptr inbounds nuw %"struct.vcpkg::Unicode::Utf8Decoder", ptr %7, i32 0, i32 3
  %14 = load ptr, ptr %6, align 8, !tbaa !17
  store ptr %14, ptr %13, align 8, !tbaa !98
  %15 = getelementptr inbounds nuw %"struct.vcpkg::Unicode::Utf8Decoder", ptr %7, i32 0, i32 2
  %16 = load ptr, ptr %15, align 8, !tbaa !97
  %17 = getelementptr inbounds nuw %"struct.vcpkg::Unicode::Utf8Decoder", ptr %7, i32 0, i32 3
  %18 = load ptr, ptr %17, align 8, !tbaa !98
  %19 = icmp ne ptr %16, %18
  br i1 %19, label %20, label %22

20:                                               ; preds = %3
  %21 = call noundef nonnull align 8 dereferenceable(32) ptr @_ZN5vcpkg7Unicode11Utf8DecoderppEv(ptr noundef nonnull align 8 dereferenceable(32) %7) #19
  br label %24

22:                                               ; preds = %3
  %23 = getelementptr inbounds nuw %"struct.vcpkg::Unicode::Utf8Decoder", ptr %7, i32 0, i32 0
  store i32 -1, ptr %23, align 8, !tbaa !35
  br label %24

24:                                               ; preds = %22, %20
  ret void
}

; Function Attrs: mustprogress nounwind uwtable
define linkonce_odr dso_local noundef ptr @_ZNK5vcpkg10StringView3endEv(ptr noundef nonnull align 8 dereferenceable(16) %0) #2 comdat align 2 {
  %2 = alloca ptr, align 8
  store ptr %0, ptr %2, align 8, !tbaa !26
  %3 = load ptr, ptr %2, align 8
  %4 = getelementptr inbounds nuw %"struct.vcpkg::StringView", ptr %3, i32 0, i32 0
  %5 = load ptr, ptr %4, align 8, !tbaa !28
  %6 = getelementptr inbounds nuw %"struct.vcpkg::StringView", ptr %3, i32 0, i32 1
  %7 = load i64, ptr %6, align 8, !tbaa !30
  %8 = getelementptr inbounds nuw i8, ptr %5, i64 %7
  ret ptr %8
}

; Function Attrs: mustprogress nounwind uwtable
define linkonce_odr dso_local noundef ptr @_ZNK5vcpkg10StringView5beginEv(ptr noundef nonnull align 8 dereferenceable(16) %0) #2 comdat align 2 {
  %2 = alloca ptr, align 8
  store ptr %0, ptr %2, align 8, !tbaa !26
  %3 = load ptr, ptr %2, align 8
  %4 = getelementptr inbounds nuw %"struct.vcpkg::StringView", ptr %3, i32 0, i32 0
  %5 = load ptr, ptr %4, align 8, !tbaa !28
  ret ptr %5
}

; Function Attrs: mustprogress nounwind uwtable
define dso_local void @_ZN5vcpkg10ParserBaseC2ENS_10StringViewENS_8OptionalIS1_EENS_10TextRowColE(ptr noundef nonnull align 8 dereferenceable(176) %0, ptr %1, i64 %2, ptr noundef %3, i64 %4) unnamed_addr #2 align 2 {
  %6 = alloca %"struct.vcpkg::StringView", align 8
  %7 = alloca %"struct.vcpkg::TextRowCol", align 4
  %8 = alloca ptr, align 8
  %9 = alloca ptr, align 8
  %10 = getelementptr inbounds nuw { ptr, i64 }, ptr %6, i32 0, i32 0
  store ptr %1, ptr %10, align 8
  %11 = getelementptr inbounds nuw { ptr, i64 }, ptr %6, i32 0, i32 1
  store i64 %2, ptr %11, align 8
  store i64 %4, ptr %7, align 4
  store ptr %0, ptr %8, align 8, !tbaa !77
  store ptr %3, ptr %9, align 8, !tbaa !79
  %12 = load ptr, ptr %8, align 8
  %13 = getelementptr inbounds nuw %"struct.vcpkg::ParserBase", ptr %12, i32 0, i32 0
  %14 = call noundef ptr @_ZNK5vcpkg10StringView5beginEv(ptr noundef nonnull align 8 dereferenceable(16) %6) #19
  %15 = call noundef ptr @_ZNK5vcpkg10StringView3endEv(ptr noundef nonnull align 8 dereferenceable(16) %6) #19
  call void @_ZN5vcpkg7Unicode11Utf8DecoderC2EPKcS3_(ptr noundef nonnull align 8 dereferenceable(32) %13, ptr noundef %14, ptr noundef %15) #19
  %16 = getelementptr inbounds nuw %"struct.vcpkg::ParserBase", ptr %12, i32 0, i32 1
  %17 = getelementptr inbounds nuw %"struct.vcpkg::ParserBase", ptr %12, i32 0, i32 0
  call void @llvm.memcpy.p0.p0.i64(ptr align 8 %16, ptr align 8 %17, i64 32, i1 false), !tbaa.struct !19
  %18 = getelementptr inbounds nuw %"struct.vcpkg::ParserBase", ptr %12, i32 0, i32 2
  %19 = getelementptr inbounds nuw %"struct.vcpkg::TextRowCol", ptr %7, i32 0, i32 0
  %20 = load i32, ptr %19, align 4, !tbaa !81
  store i32 %20, ptr %18, align 8, !tbaa !83
  %21 = getelementptr inbounds nuw %"struct.vcpkg::ParserBase", ptr %12, i32 0, i32 3
  %22 = getelementptr inbounds nuw %"struct.vcpkg::TextRowCol", ptr %7, i32 0, i32 1
  %23 = load i32, ptr %22, align 4, !tbaa !95
  store i32 %23, ptr %21, align 4, !tbaa !96
  %24 = getelementptr inbounds nuw %"struct.vcpkg::ParserBase", ptr %12, i32 0, i32 4
  call void @llvm.memcpy.p0.p0.i64(ptr align 8 %24, ptr align 8 %6, i64 16, i1 false), !tbaa.struct !16
  %25 = getelementptr inbounds nuw %"struct.vcpkg::ParserBase", ptr %12, i32 0, i32 5
  call void @_ZN5vcpkg8OptionalINS_10StringViewEEC2ERKS2_(ptr noundef nonnull align 8 dereferenceable(24) %25, ptr noundef nonnull align 8 dereferenceable(24) %3) #19
  %26 = getelementptr inbounds nuw %"struct.vcpkg::ParserBase", ptr %12, i32 0, i32 6
  call void @_ZN5vcpkg13ParseMessagesC2Ev(ptr noundef nonnull align 8 dereferenceable(64) %26) #19
  ret void
}