; Function Attrs: mustprogress nounwind uwtable
define dso_local void @_ZN5vcpkg10ParserBaseC2ENS_10StringViewENS_8OptionalIS1_EENS_10TextRowColE(ptr noundef nonnull align 8 dereferenceable(176) initializes((0, 4), (8, 32)) %0, ptr %1, i64 %2, ptr noundef readonly captures(none) %3, i64 %4) unnamed_addr #8 align 2 personality ptr @__gxx_personality_v0 {
  %.sroa.0.0.extract.trunc = trunc i64 %4 to i32
  %.sroa.2.0.extract.shift = lshr i64 %4, 32
  %.sroa.2.0.extract.trunc = trunc nuw i64 %.sroa.2.0.extract.shift to i32
  %6 = getelementptr inbounds nuw i8, ptr %1, i64 %2
  store i32 0, ptr %0, align 8, !tbaa !15
  %7 = getelementptr inbounds nuw i8, ptr %0, i64 8
  store ptr %1, ptr %7, align 8, !tbaa !19
  %8 = getelementptr inbounds nuw i8, ptr %0, i64 16
  store ptr %1, ptr %8, align 8, !tbaa !22
  %9 = getelementptr inbounds nuw i8, ptr %0, i64 24
  store ptr %6, ptr %9, align 8, !tbaa !23
  %.not.i = icmp samesign eq i64 %2, 0
  br i1 %.not.i, label %12, label %10

10:                                               ; preds = %5
  %11 = tail call noundef nonnull align 8 dereferenceable(32) ptr @_ZN5vcpkg7Unicode11Utf8DecoderppEv(ptr noundef nonnull align 8 dereferenceable(32) %0) #21
  br label %_ZN5vcpkg7Unicode11Utf8DecoderC2EPKcS3_.exit

12:                                               ; preds = %5
  store i32 -1, ptr %0, align 8, !tbaa !15
  br label %_ZN5vcpkg7Unicode11Utf8DecoderC2EPKcS3_.exit

_ZN5vcpkg7Unicode11Utf8DecoderC2EPKcS3_.exit:     ; preds = %10, %12
  %13 = getelementptr inbounds nuw i8, ptr %0, i64 32
  tail call void @llvm.memcpy.p0.p0.i64(ptr noundef nonnull align 8 dereferenceable(32) %13, ptr noundef nonnull align 8 dereferenceable(32) %0, i64 32, i1 false), !tbaa.struct !7
  %14 = getelementptr inbounds nuw i8, ptr %0, i64 64
  store i32 %.sroa.0.0.extract.trunc, ptr %14, align 8, !tbaa !55
  %15 = getelementptr inbounds nuw i8, ptr %0, i64 68
  store i32 %.sroa.2.0.extract.trunc, ptr %15, align 4, !tbaa !68
  %16 = getelementptr inbounds nuw i8, ptr %0, i64 72
  store ptr %1, ptr %16, align 8, !tbaa !12
  %.sroa.4.0..sroa_idx = getelementptr inbounds nuw i8, ptr %0, i64 80
  store i64 %2, ptr %.sroa.4.0..sroa_idx, align 8, !tbaa !20
  %17 = getelementptr inbounds nuw i8, ptr %0, i64 88
  store i8 0, ptr %17, align 8, !tbaa !69
  %18 = getelementptr inbounds nuw i8, ptr %0, i64 96
  store i8 0, ptr %18, align 8, !tbaa !28
  %19 = load i8, ptr %3, align 8, !tbaa !69, !range !53, !noundef !54
  %20 = trunc nuw i8 %19 to i1
  br i1 %20, label %21, label %_ZN5vcpkg8OptionalINS_10StringViewEEC2ERKS2_.exit

21:                                               ; preds = %_ZN5vcpkg7Unicode11Utf8DecoderC2EPKcS3_.exit
  store i8 1, ptr %17, align 8, !tbaa !69
  %22 = getelementptr inbounds nuw i8, ptr %3, i64 8
  tail call void @llvm.memcpy.p0.p0.i64(ptr noundef nonnull align 8 dereferenceable(16) %18, ptr noundef nonnull align 8 dereferenceable(16) %22, i64 16, i1 false), !tbaa.struct !70
  br label %_ZN5vcpkg8OptionalINS_10StringViewEEC2ERKS2_.exit

_ZN5vcpkg8OptionalINS_10StringViewEEC2ERKS2_.exit: ; preds = %_ZN5vcpkg7Unicode11Utf8DecoderC2EPKcS3_.exit, %21
  %23 = getelementptr inbounds nuw i8, ptr %0, i64 112
  store i8 0, ptr %23, align 8, !tbaa !50
  %24 = getelementptr inbounds nuw i8, ptr %0, i64 120
  store i8 0, ptr %24, align 8, !tbaa !28
  %25 = getelementptr inbounds nuw i8, ptr %0, i64 152
  tail call void @llvm.memset.p0.i64(ptr noundef nonnull align 8 dereferenceable(24) %25, i8 0, i64 24, i1 false)
  ret void
}